ARM GAS  /var/folders/g1/j12m_ky910s3_sv7d4yrsdn00000gn/T//ccd4TJBE.s 			page 1


   1              		.cpu cortex-m7
   2              		.arch armv7e-m
   3              		.fpu fpv5-d16
   4              		.eabi_attribute 28, 1
   5              		.eabi_attribute 20, 1
   6              		.eabi_attribute 21, 1
   7              		.eabi_attribute 23, 3
   8              		.eabi_attribute 24, 1
   9              		.eabi_attribute 25, 1
  10              		.eabi_attribute 26, 1
  11              		.eabi_attribute 30, 1
  12              		.eabi_attribute 34, 1
  13              		.eabi_attribute 18, 4
  14              		.file	"tim.c"
  15              		.text
  16              	.Ltext0:
  17              		.cfi_sections	.debug_frame
  18              		.file 1 "Core/Src/tim.c"
  19              		.section	.text.MX_TIM1_Init,"ax",%progbits
  20              		.align	1
  21              		.global	MX_TIM1_Init
  22              		.syntax unified
  23              		.thumb
  24              		.thumb_func
  26              	MX_TIM1_Init:
  27              	.LFB144:
   1:Core/Src/tim.c **** /* USER CODE BEGIN Header */
   2:Core/Src/tim.c **** /**
   3:Core/Src/tim.c ****   ******************************************************************************
   4:Core/Src/tim.c ****   * @file    tim.c
   5:Core/Src/tim.c ****   * @brief   This file provides code for the configuration
   6:Core/Src/tim.c ****   *          of the TIM instances.
   7:Core/Src/tim.c ****   ******************************************************************************
   8:Core/Src/tim.c ****   * @attention
   9:Core/Src/tim.c ****   *
  10:Core/Src/tim.c ****   * Copyright (c) 2025 STMicroelectronics.
  11:Core/Src/tim.c ****   * All rights reserved.
  12:Core/Src/tim.c ****   *
  13:Core/Src/tim.c ****   * This software is licensed under terms that can be found in the LICENSE file
  14:Core/Src/tim.c ****   * in the root directory of this software component.
  15:Core/Src/tim.c ****   * If no LICENSE file comes with this software, it is provided AS-IS.
  16:Core/Src/tim.c ****   *
  17:Core/Src/tim.c ****   ******************************************************************************
  18:Core/Src/tim.c ****   */
  19:Core/Src/tim.c **** /* USER CODE END Header */
  20:Core/Src/tim.c **** /* Includes ------------------------------------------------------------------*/
  21:Core/Src/tim.c **** #include "tim.h"
  22:Core/Src/tim.c **** 
  23:Core/Src/tim.c **** /* USER CODE BEGIN 0 */
  24:Core/Src/tim.c **** 
  25:Core/Src/tim.c **** /* USER CODE END 0 */
  26:Core/Src/tim.c **** 
  27:Core/Src/tim.c **** TIM_HandleTypeDef htim1;
  28:Core/Src/tim.c **** 
  29:Core/Src/tim.c **** /* TIM1 init function */
  30:Core/Src/tim.c **** void MX_TIM1_Init(void)
  31:Core/Src/tim.c **** {
ARM GAS  /var/folders/g1/j12m_ky910s3_sv7d4yrsdn00000gn/T//ccd4TJBE.s 			page 2


  28              		.loc 1 31 1 view -0
  29              		.cfi_startproc
  30              		@ args = 0, pretend = 0, frame = 88
  31              		@ frame_needed = 0, uses_anonymous_args = 0
  32 0000 F0B5     		push	{r4, r5, r6, r7, lr}
  33              	.LCFI0:
  34              		.cfi_def_cfa_offset 20
  35              		.cfi_offset 4, -20
  36              		.cfi_offset 5, -16
  37              		.cfi_offset 6, -12
  38              		.cfi_offset 7, -8
  39              		.cfi_offset 14, -4
  40 0002 97B0     		sub	sp, sp, #92
  41              	.LCFI1:
  42              		.cfi_def_cfa_offset 112
  32:Core/Src/tim.c ****   TIM_MasterConfigTypeDef sMasterConfig = {0};
  43              		.loc 1 32 3 view .LVU1
  44              		.loc 1 32 27 is_stmt 0 view .LVU2
  45 0004 13AF     		add	r7, sp, #76
  46 0006 0024     		movs	r4, #0
  47 0008 1394     		str	r4, [sp, #76]
  48 000a 1494     		str	r4, [sp, #80]
  49 000c 1594     		str	r4, [sp, #84]
  33:Core/Src/tim.c ****   TIM_OC_InitTypeDef sConfigOC = {0};
  50              		.loc 1 33 3 is_stmt 1 view .LVU3
  51              		.loc 1 33 22 is_stmt 0 view .LVU4
  52 000e 0CAE     		add	r6, sp, #48
  53 0010 0C94     		str	r4, [sp, #48]
  54 0012 0D94     		str	r4, [sp, #52]
  55 0014 0E94     		str	r4, [sp, #56]
  56 0016 0F94     		str	r4, [sp, #60]
  57 0018 1094     		str	r4, [sp, #64]
  58 001a 1194     		str	r4, [sp, #68]
  59 001c 1294     		str	r4, [sp, #72]
  34:Core/Src/tim.c ****   TIM_BreakDeadTimeConfigTypeDef sBreakDeadTimeConfig = {0};
  60              		.loc 1 34 3 is_stmt 1 view .LVU5
  61              		.loc 1 34 34 is_stmt 0 view .LVU6
  62 001e 2C22     		movs	r2, #44
  63 0020 2146     		mov	r1, r4
  64 0022 01A8     		add	r0, sp, #4
  65 0024 FFF7FEFF 		bl	memset
  66              	.LVL0:
  35:Core/Src/tim.c **** 
  36:Core/Src/tim.c ****   htim1.Instance = TIM1;
  67              		.loc 1 36 3 is_stmt 1 view .LVU7
  68              		.loc 1 36 18 is_stmt 0 view .LVU8
  69 0028 124D     		ldr	r5, .L3
  70 002a 134B     		ldr	r3, .L3+4
  71 002c 2B60     		str	r3, [r5]
  37:Core/Src/tim.c ****   htim1.Init.Prescaler = 99;
  72              		.loc 1 37 3 is_stmt 1 view .LVU9
  73              		.loc 1 37 24 is_stmt 0 view .LVU10
  74 002e 6323     		movs	r3, #99
  75 0030 6B60     		str	r3, [r5, #4]
  38:Core/Src/tim.c ****   htim1.Init.CounterMode = TIM_COUNTERMODE_UP;
  76              		.loc 1 38 3 is_stmt 1 view .LVU11
  77              		.loc 1 38 26 is_stmt 0 view .LVU12
ARM GAS  /var/folders/g1/j12m_ky910s3_sv7d4yrsdn00000gn/T//ccd4TJBE.s 			page 3


  78 0032 AC60     		str	r4, [r5, #8]
  39:Core/Src/tim.c ****   htim1.Init.Period = 999;
  79              		.loc 1 39 3 is_stmt 1 view .LVU13
  80              		.loc 1 39 21 is_stmt 0 view .LVU14
  81 0034 40F2E733 		movw	r3, #999
  82 0038 EB60     		str	r3, [r5, #12]
  40:Core/Src/tim.c ****   htim1.Init.ClockDivision = TIM_CLOCKDIVISION_DIV1;
  83              		.loc 1 40 3 is_stmt 1 view .LVU15
  84              		.loc 1 40 28 is_stmt 0 view .LVU16
  85 003a 2C61     		str	r4, [r5, #16]
  41:Core/Src/tim.c ****   htim1.Init.RepetitionCounter = 0;
  86              		.loc 1 41 3 is_stmt 1 view .LVU17
  87              		.loc 1 41 32 is_stmt 0 view .LVU18
  88 003c 6C61     		str	r4, [r5, #20]
  42:Core/Src/tim.c ****   htim1.Init.AutoReloadPreload = TIM_AUTORELOAD_PRELOAD_DISABLE;
  89              		.loc 1 42 3 is_stmt 1 view .LVU19
  90              		.loc 1 42 32 is_stmt 0 view .LVU20
  91 003e AC61     		str	r4, [r5, #24]
  43:Core/Src/tim.c ****   HAL_TIM_PWM_Init(&htim1);
  92              		.loc 1 43 3 is_stmt 1 view .LVU21
  93 0040 2846     		mov	r0, r5
  94 0042 FFF7FEFF 		bl	HAL_TIM_PWM_Init
  95              	.LVL1:
  44:Core/Src/tim.c **** 
  45:Core/Src/tim.c ****   sMasterConfig.MasterOutputTrigger = TIM_TRGO_RESET;
  96              		.loc 1 45 3 view .LVU22
  97              		.loc 1 45 37 is_stmt 0 view .LVU23
  98 0046 1394     		str	r4, [sp, #76]
  46:Core/Src/tim.c ****   sMasterConfig.MasterOutputTrigger2 = TIM_TRGO2_RESET;
  99              		.loc 1 46 3 is_stmt 1 view .LVU24
 100              		.loc 1 46 38 is_stmt 0 view .LVU25
 101 0048 1494     		str	r4, [sp, #80]
  47:Core/Src/tim.c ****   sMasterConfig.MasterSlaveMode = TIM_MASTERSLAVEMODE_DISABLE;
 102              		.loc 1 47 3 is_stmt 1 view .LVU26
 103              		.loc 1 47 33 is_stmt 0 view .LVU27
 104 004a 1594     		str	r4, [sp, #84]
  48:Core/Src/tim.c ****   HAL_TIMEx_MasterConfigSynchronization(&htim1, &sMasterConfig);
 105              		.loc 1 48 3 is_stmt 1 view .LVU28
 106 004c 3946     		mov	r1, r7
 107 004e 2846     		mov	r0, r5
 108 0050 FFF7FEFF 		bl	HAL_TIMEx_MasterConfigSynchronization
 109              	.LVL2:
  49:Core/Src/tim.c **** 
  50:Core/Src/tim.c ****   sConfigOC.OCMode = TIM_OCMODE_PWM1;
 110              		.loc 1 50 3 view .LVU29
 111              		.loc 1 50 20 is_stmt 0 view .LVU30
 112 0054 6023     		movs	r3, #96
 113 0056 0C93     		str	r3, [sp, #48]
  51:Core/Src/tim.c ****   sConfigOC.Pulse = 0;
 114              		.loc 1 51 3 is_stmt 1 view .LVU31
 115              		.loc 1 51 19 is_stmt 0 view .LVU32
 116 0058 0D94     		str	r4, [sp, #52]
  52:Core/Src/tim.c ****   sConfigOC.OCPolarity = TIM_OCPOLARITY_HIGH;
 117              		.loc 1 52 3 is_stmt 1 view .LVU33
 118              		.loc 1 52 24 is_stmt 0 view .LVU34
 119 005a 0E94     		str	r4, [sp, #56]
  53:Core/Src/tim.c ****   sConfigOC.OCNPolarity = TIM_OCNPOLARITY_HIGH;
ARM GAS  /var/folders/g1/j12m_ky910s3_sv7d4yrsdn00000gn/T//ccd4TJBE.s 			page 4


 120              		.loc 1 53 3 is_stmt 1 view .LVU35
 121              		.loc 1 53 25 is_stmt 0 view .LVU36
 122 005c 0F94     		str	r4, [sp, #60]
  54:Core/Src/tim.c ****   sConfigOC.OCFastMode = TIM_OCFAST_DISABLE;
 123              		.loc 1 54 3 is_stmt 1 view .LVU37
 124              		.loc 1 54 24 is_stmt 0 view .LVU38
 125 005e 1094     		str	r4, [sp, #64]
  55:Core/Src/tim.c ****   sConfigOC.OCIdleState = TIM_OCIDLESTATE_RESET;
 126              		.loc 1 55 3 is_stmt 1 view .LVU39
 127              		.loc 1 55 25 is_stmt 0 view .LVU40
 128 0060 1194     		str	r4, [sp, #68]
  56:Core/Src/tim.c ****   sConfigOC.OCNIdleState = TIM_OCNIDLESTATE_RESET;
 129              		.loc 1 56 3 is_stmt 1 view .LVU41
 130              		.loc 1 56 26 is_stmt 0 view .LVU42
 131 0062 1294     		str	r4, [sp, #72]
  57:Core/Src/tim.c ****   HAL_TIM_PWM_ConfigChannel(&htim1, &sConfigOC, TIM_CHANNEL_1);
 132              		.loc 1 57 3 is_stmt 1 view .LVU43
 133 0064 2246     		mov	r2, r4
 134 0066 3146     		mov	r1, r6
 135 0068 2846     		mov	r0, r5
 136 006a FFF7FEFF 		bl	HAL_TIM_PWM_ConfigChannel
 137              	.LVL3:
  58:Core/Src/tim.c **** }
 138              		.loc 1 58 1 is_stmt 0 view .LVU44
 139 006e 17B0     		add	sp, sp, #92
 140              	.LCFI2:
 141              		.cfi_def_cfa_offset 20
 142              		@ sp needed
 143 0070 F0BD     		pop	{r4, r5, r6, r7, pc}
 144              	.L4:
 145 0072 00BF     		.align	2
 146              	.L3:
 147 0074 00000000 		.word	htim1
 148 0078 00000140 		.word	1073807360
 149              		.cfi_endproc
 150              	.LFE144:
 152              		.section	.text.HAL_TIM_PWM_MspInit,"ax",%progbits
 153              		.align	1
 154              		.global	HAL_TIM_PWM_MspInit
 155              		.syntax unified
 156              		.thumb
 157              		.thumb_func
 159              	HAL_TIM_PWM_MspInit:
 160              	.LVL4:
 161              	.LFB145:
  59:Core/Src/tim.c **** 
  60:Core/Src/tim.c **** void HAL_TIM_PWM_MspInit(TIM_HandleTypeDef* htim)
  61:Core/Src/tim.c **** {
 162              		.loc 1 61 1 is_stmt 1 view -0
 163              		.cfi_startproc
 164              		@ args = 0, pretend = 0, frame = 32
 165              		@ frame_needed = 0, uses_anonymous_args = 0
 166              		.loc 1 61 1 is_stmt 0 view .LVU46
 167 0000 00B5     		push	{lr}
 168              	.LCFI3:
 169              		.cfi_def_cfa_offset 4
 170              		.cfi_offset 14, -4
ARM GAS  /var/folders/g1/j12m_ky910s3_sv7d4yrsdn00000gn/T//ccd4TJBE.s 			page 5


 171 0002 89B0     		sub	sp, sp, #36
 172              	.LCFI4:
 173              		.cfi_def_cfa_offset 40
  62:Core/Src/tim.c ****   GPIO_InitTypeDef GPIO_InitStruct = {0};
 174              		.loc 1 62 3 is_stmt 1 view .LVU47
 175              		.loc 1 62 20 is_stmt 0 view .LVU48
 176 0004 0023     		movs	r3, #0
 177 0006 0393     		str	r3, [sp, #12]
 178 0008 0493     		str	r3, [sp, #16]
 179 000a 0593     		str	r3, [sp, #20]
 180 000c 0693     		str	r3, [sp, #24]
 181 000e 0793     		str	r3, [sp, #28]
  63:Core/Src/tim.c ****   if(htim->Instance==TIM1)
 182              		.loc 1 63 3 is_stmt 1 view .LVU49
 183              		.loc 1 63 10 is_stmt 0 view .LVU50
 184 0010 0268     		ldr	r2, [r0]
 185              		.loc 1 63 5 view .LVU51
 186 0012 144B     		ldr	r3, .L9
 187 0014 9A42     		cmp	r2, r3
 188 0016 02D0     		beq	.L8
 189              	.LVL5:
 190              	.L5:
  64:Core/Src/tim.c ****   {
  65:Core/Src/tim.c ****     __HAL_RCC_TIM1_CLK_ENABLE();
  66:Core/Src/tim.c ****     __HAL_RCC_GPIOC_CLK_ENABLE();
  67:Core/Src/tim.c ****     
  68:Core/Src/tim.c ****     GPIO_InitStruct.Pin = LED_Pin;
  69:Core/Src/tim.c ****     GPIO_InitStruct.Mode = GPIO_MODE_AF_PP;
  70:Core/Src/tim.c ****     GPIO_InitStruct.Pull = GPIO_NOPULL;
  71:Core/Src/tim.c ****     GPIO_InitStruct.Speed = GPIO_SPEED_FREQ_LOW;
  72:Core/Src/tim.c ****     GPIO_InitStruct.Alternate = GPIO_AF1_TIM1;
  73:Core/Src/tim.c ****     HAL_GPIO_Init(LED_GPIO_Port, &GPIO_InitStruct);
  74:Core/Src/tim.c ****   }
  75:Core/Src/tim.c **** }
 191              		.loc 1 75 1 view .LVU52
 192 0018 09B0     		add	sp, sp, #36
 193              	.LCFI5:
 194              		.cfi_remember_state
 195              		.cfi_def_cfa_offset 4
 196              		@ sp needed
 197 001a 5DF804FB 		ldr	pc, [sp], #4
 198              	.LVL6:
 199              	.L8:
 200              	.LCFI6:
 201              		.cfi_restore_state
  65:Core/Src/tim.c ****     __HAL_RCC_GPIOC_CLK_ENABLE();
 202              		.loc 1 65 5 is_stmt 1 view .LVU53
 203              	.LBB2:
  65:Core/Src/tim.c ****     __HAL_RCC_GPIOC_CLK_ENABLE();
 204              		.loc 1 65 5 view .LVU54
  65:Core/Src/tim.c ****     __HAL_RCC_GPIOC_CLK_ENABLE();
 205              		.loc 1 65 5 view .LVU55
 206 001e 124B     		ldr	r3, .L9+4
 207 0020 D3F8F020 		ldr	r2, [r3, #240]
 208 0024 42F00102 		orr	r2, r2, #1
 209 0028 C3F8F020 		str	r2, [r3, #240]
  65:Core/Src/tim.c ****     __HAL_RCC_GPIOC_CLK_ENABLE();
ARM GAS  /var/folders/g1/j12m_ky910s3_sv7d4yrsdn00000gn/T//ccd4TJBE.s 			page 6


 210              		.loc 1 65 5 view .LVU56
 211 002c D3F8F020 		ldr	r2, [r3, #240]
 212 0030 02F00102 		and	r2, r2, #1
 213 0034 0192     		str	r2, [sp, #4]
  65:Core/Src/tim.c ****     __HAL_RCC_GPIOC_CLK_ENABLE();
 214              		.loc 1 65 5 view .LVU57
 215 0036 019A     		ldr	r2, [sp, #4]
 216              	.LBE2:
  65:Core/Src/tim.c ****     __HAL_RCC_GPIOC_CLK_ENABLE();
 217              		.loc 1 65 5 view .LVU58
  66:Core/Src/tim.c ****     
 218              		.loc 1 66 5 view .LVU59
 219              	.LBB3:
  66:Core/Src/tim.c ****     
 220              		.loc 1 66 5 view .LVU60
  66:Core/Src/tim.c ****     
 221              		.loc 1 66 5 view .LVU61
 222 0038 D3F8E020 		ldr	r2, [r3, #224]
 223 003c 42F00402 		orr	r2, r2, #4
 224 0040 C3F8E020 		str	r2, [r3, #224]
  66:Core/Src/tim.c ****     
 225              		.loc 1 66 5 view .LVU62
 226 0044 D3F8E030 		ldr	r3, [r3, #224]
 227 0048 03F00403 		and	r3, r3, #4
 228 004c 0293     		str	r3, [sp, #8]
  66:Core/Src/tim.c ****     
 229              		.loc 1 66 5 view .LVU63
 230 004e 029B     		ldr	r3, [sp, #8]
 231              	.LBE3:
  66:Core/Src/tim.c ****     
 232              		.loc 1 66 5 view .LVU64
  68:Core/Src/tim.c ****     GPIO_InitStruct.Mode = GPIO_MODE_AF_PP;
 233              		.loc 1 68 5 view .LVU65
  68:Core/Src/tim.c ****     GPIO_InitStruct.Mode = GPIO_MODE_AF_PP;
 234              		.loc 1 68 25 is_stmt 0 view .LVU66
 235 0050 0223     		movs	r3, #2
 236 0052 0393     		str	r3, [sp, #12]
  69:Core/Src/tim.c ****     GPIO_InitStruct.Pull = GPIO_NOPULL;
 237              		.loc 1 69 5 is_stmt 1 view .LVU67
  69:Core/Src/tim.c ****     GPIO_InitStruct.Pull = GPIO_NOPULL;
 238              		.loc 1 69 26 is_stmt 0 view .LVU68
 239 0054 0493     		str	r3, [sp, #16]
  70:Core/Src/tim.c ****     GPIO_InitStruct.Speed = GPIO_SPEED_FREQ_LOW;
 240              		.loc 1 70 5 is_stmt 1 view .LVU69
  71:Core/Src/tim.c ****     GPIO_InitStruct.Alternate = GPIO_AF1_TIM1;
 241              		.loc 1 71 5 view .LVU70
  72:Core/Src/tim.c ****     HAL_GPIO_Init(LED_GPIO_Port, &GPIO_InitStruct);
 242              		.loc 1 72 5 view .LVU71
  72:Core/Src/tim.c ****     HAL_GPIO_Init(LED_GPIO_Port, &GPIO_InitStruct);
 243              		.loc 1 72 31 is_stmt 0 view .LVU72
 244 0056 0123     		movs	r3, #1
 245 0058 0793     		str	r3, [sp, #28]
  73:Core/Src/tim.c ****   }
 246              		.loc 1 73 5 is_stmt 1 view .LVU73
 247 005a 03A9     		add	r1, sp, #12
 248 005c 0348     		ldr	r0, .L9+8
 249              	.LVL7:
ARM GAS  /var/folders/g1/j12m_ky910s3_sv7d4yrsdn00000gn/T//ccd4TJBE.s 			page 7


  73:Core/Src/tim.c ****   }
 250              		.loc 1 73 5 is_stmt 0 view .LVU74
 251 005e FFF7FEFF 		bl	HAL_GPIO_Init
 252              	.LVL8:
 253              		.loc 1 75 1 view .LVU75
 254 0062 D9E7     		b	.L5
 255              	.L10:
 256              		.align	2
 257              	.L9:
 258 0064 00000140 		.word	1073807360
 259 0068 00440258 		.word	1476543488
 260 006c 00080258 		.word	1476528128
 261              		.cfi_endproc
 262              	.LFE145:
 264              		.section	.text.HAL_TIM_Base_MspInit,"ax",%progbits
 265              		.align	1
 266              		.global	HAL_TIM_Base_MspInit
 267              		.syntax unified
 268              		.thumb
 269              		.thumb_func
 271              	HAL_TIM_Base_MspInit:
 272              	.LVL9:
 273              	.LFB146:
  76:Core/Src/tim.c **** void HAL_TIM_Base_MspInit(TIM_HandleTypeDef* tim_baseHandle)
  77:Core/Src/tim.c **** {
 274              		.loc 1 77 1 is_stmt 1 view -0
 275              		.cfi_startproc
 276              		@ args = 0, pretend = 0, frame = 8
 277              		@ frame_needed = 0, uses_anonymous_args = 0
 278              		@ link register save eliminated.
  78:Core/Src/tim.c **** 
  79:Core/Src/tim.c ****   if(tim_baseHandle->Instance==TIM1)
 279              		.loc 1 79 3 view .LVU77
 280              		.loc 1 79 20 is_stmt 0 view .LVU78
 281 0000 0268     		ldr	r2, [r0]
 282              		.loc 1 79 5 view .LVU79
 283 0002 0A4B     		ldr	r3, .L18
 284 0004 9A42     		cmp	r2, r3
 285 0006 00D0     		beq	.L17
 286 0008 7047     		bx	lr
 287              	.L17:
  77:Core/Src/tim.c **** 
 288              		.loc 1 77 1 view .LVU80
 289 000a 82B0     		sub	sp, sp, #8
 290              	.LCFI7:
 291              		.cfi_def_cfa_offset 8
  80:Core/Src/tim.c ****   {
  81:Core/Src/tim.c ****   /* USER CODE BEGIN TIM1_MspInit 0 */
  82:Core/Src/tim.c **** 
  83:Core/Src/tim.c ****   /* USER CODE END TIM1_MspInit 0 */
  84:Core/Src/tim.c ****     /* TIM1 clock enable */
  85:Core/Src/tim.c ****     __HAL_RCC_TIM1_CLK_ENABLE();
 292              		.loc 1 85 5 is_stmt 1 view .LVU81
 293              	.LBB4:
 294              		.loc 1 85 5 view .LVU82
 295              		.loc 1 85 5 view .LVU83
 296 000c 084B     		ldr	r3, .L18+4
ARM GAS  /var/folders/g1/j12m_ky910s3_sv7d4yrsdn00000gn/T//ccd4TJBE.s 			page 8


 297 000e D3F8F020 		ldr	r2, [r3, #240]
 298 0012 42F00102 		orr	r2, r2, #1
 299 0016 C3F8F020 		str	r2, [r3, #240]
 300              		.loc 1 85 5 view .LVU84
 301 001a D3F8F030 		ldr	r3, [r3, #240]
 302 001e 03F00103 		and	r3, r3, #1
 303 0022 0193     		str	r3, [sp, #4]
 304              		.loc 1 85 5 view .LVU85
 305 0024 019B     		ldr	r3, [sp, #4]
 306              	.LBE4:
 307              		.loc 1 85 5 discriminator 1 view .LVU86
  86:Core/Src/tim.c ****   /* USER CODE BEGIN TIM1_MspInit 1 */
  87:Core/Src/tim.c **** 
  88:Core/Src/tim.c ****   /* USER CODE END TIM1_MspInit 1 */
  89:Core/Src/tim.c ****   }
  90:Core/Src/tim.c **** }
 308              		.loc 1 90 1 is_stmt 0 view .LVU87
 309 0026 02B0     		add	sp, sp, #8
 310              	.LCFI8:
 311              		.cfi_def_cfa_offset 0
 312              		@ sp needed
 313 0028 7047     		bx	lr
 314              	.L19:
 315 002a 00BF     		.align	2
 316              	.L18:
 317 002c 00000140 		.word	1073807360
 318 0030 00440258 		.word	1476543488
 319              		.cfi_endproc
 320              	.LFE146:
 322              		.section	.text.HAL_TIM_MspPostInit,"ax",%progbits
 323              		.align	1
 324              		.global	HAL_TIM_MspPostInit
 325              		.syntax unified
 326              		.thumb
 327              		.thumb_func
 329              	HAL_TIM_MspPostInit:
 330              	.LVL10:
 331              	.LFB147:
  91:Core/Src/tim.c **** void HAL_TIM_MspPostInit(TIM_HandleTypeDef* timHandle)
  92:Core/Src/tim.c **** {
 332              		.loc 1 92 1 is_stmt 1 view -0
 333              		.cfi_startproc
 334              		@ args = 0, pretend = 0, frame = 32
 335              		@ frame_needed = 0, uses_anonymous_args = 0
 336              		.loc 1 92 1 is_stmt 0 view .LVU89
 337 0000 70B5     		push	{r4, r5, r6, lr}
 338              	.LCFI9:
 339              		.cfi_def_cfa_offset 16
 340              		.cfi_offset 4, -16
 341              		.cfi_offset 5, -12
 342              		.cfi_offset 6, -8
 343              		.cfi_offset 14, -4
 344 0002 88B0     		sub	sp, sp, #32
 345              	.LCFI10:
 346              		.cfi_def_cfa_offset 48
  93:Core/Src/tim.c **** 
  94:Core/Src/tim.c ****   GPIO_InitTypeDef GPIO_InitStruct = {0};
ARM GAS  /var/folders/g1/j12m_ky910s3_sv7d4yrsdn00000gn/T//ccd4TJBE.s 			page 9


 347              		.loc 1 94 3 is_stmt 1 view .LVU90
 348              		.loc 1 94 20 is_stmt 0 view .LVU91
 349 0004 0023     		movs	r3, #0
 350 0006 0393     		str	r3, [sp, #12]
 351 0008 0493     		str	r3, [sp, #16]
 352 000a 0593     		str	r3, [sp, #20]
 353 000c 0693     		str	r3, [sp, #24]
 354 000e 0793     		str	r3, [sp, #28]
  95:Core/Src/tim.c ****   if(timHandle->Instance==TIM1)
 355              		.loc 1 95 3 is_stmt 1 view .LVU92
 356              		.loc 1 95 15 is_stmt 0 view .LVU93
 357 0010 0268     		ldr	r2, [r0]
 358              		.loc 1 95 5 view .LVU94
 359 0012 1B4B     		ldr	r3, .L24
 360 0014 9A42     		cmp	r2, r3
 361 0016 01D0     		beq	.L23
 362              	.LVL11:
 363              	.L20:
  96:Core/Src/tim.c ****   {
  97:Core/Src/tim.c ****   /* USER CODE BEGIN TIM1_MspPostInit 0 */
  98:Core/Src/tim.c **** 
  99:Core/Src/tim.c ****   /* USER CODE END TIM1_MspPostInit 0 */
 100:Core/Src/tim.c **** 
 101:Core/Src/tim.c ****     __HAL_RCC_GPIOA_CLK_ENABLE();
 102:Core/Src/tim.c ****     __HAL_RCC_GPIOE_CLK_ENABLE();
 103:Core/Src/tim.c ****     /**TIM1 GPIO Configuration
 104:Core/Src/tim.c ****     PA7     ------> TIM1_CH1N
 105:Core/Src/tim.c ****     PE9     ------> TIM1_CH1
 106:Core/Src/tim.c ****     */
 107:Core/Src/tim.c ****     GPIO_InitStruct.Pin = GPIO_PIN_7;
 108:Core/Src/tim.c ****     GPIO_InitStruct.Mode = GPIO_MODE_AF_PP;
 109:Core/Src/tim.c ****     GPIO_InitStruct.Pull = GPIO_NOPULL;
 110:Core/Src/tim.c ****     GPIO_InitStruct.Speed = GPIO_SPEED_FREQ_LOW;
 111:Core/Src/tim.c ****     GPIO_InitStruct.Alternate = GPIO_AF1_TIM1;
 112:Core/Src/tim.c ****     HAL_GPIO_Init(GPIOA, &GPIO_InitStruct);
 113:Core/Src/tim.c **** 
 114:Core/Src/tim.c ****     GPIO_InitStruct.Pin = GPIO_PIN_9;
 115:Core/Src/tim.c ****     GPIO_InitStruct.Mode = GPIO_MODE_AF_PP;
 116:Core/Src/tim.c ****     GPIO_InitStruct.Pull = GPIO_NOPULL;
 117:Core/Src/tim.c ****     GPIO_InitStruct.Speed = GPIO_SPEED_FREQ_LOW;
 118:Core/Src/tim.c ****     GPIO_InitStruct.Alternate = GPIO_AF1_TIM1;
 119:Core/Src/tim.c ****     HAL_GPIO_Init(GPIOE, &GPIO_InitStruct);
 120:Core/Src/tim.c **** 
 121:Core/Src/tim.c ****   /* USER CODE BEGIN TIM1_MspPostInit 1 */
 122:Core/Src/tim.c **** 
 123:Core/Src/tim.c ****   /* USER CODE END TIM1_MspPostInit 1 */
 124:Core/Src/tim.c ****   }
 125:Core/Src/tim.c **** 
 126:Core/Src/tim.c **** }
 364              		.loc 1 126 1 view .LVU95
 365 0018 08B0     		add	sp, sp, #32
 366              	.LCFI11:
 367              		.cfi_remember_state
 368              		.cfi_def_cfa_offset 16
 369              		@ sp needed
 370 001a 70BD     		pop	{r4, r5, r6, pc}
 371              	.LVL12:
ARM GAS  /var/folders/g1/j12m_ky910s3_sv7d4yrsdn00000gn/T//ccd4TJBE.s 			page 10


 372              	.L23:
 373              	.LCFI12:
 374              		.cfi_restore_state
 101:Core/Src/tim.c ****     __HAL_RCC_GPIOE_CLK_ENABLE();
 375              		.loc 1 101 5 is_stmt 1 view .LVU96
 376              	.LBB5:
 101:Core/Src/tim.c ****     __HAL_RCC_GPIOE_CLK_ENABLE();
 377              		.loc 1 101 5 view .LVU97
 101:Core/Src/tim.c ****     __HAL_RCC_GPIOE_CLK_ENABLE();
 378              		.loc 1 101 5 view .LVU98
 379 001c 194B     		ldr	r3, .L24+4
 380 001e D3F8E020 		ldr	r2, [r3, #224]
 381 0022 42F00102 		orr	r2, r2, #1
 382 0026 C3F8E020 		str	r2, [r3, #224]
 101:Core/Src/tim.c ****     __HAL_RCC_GPIOE_CLK_ENABLE();
 383              		.loc 1 101 5 view .LVU99
 384 002a D3F8E020 		ldr	r2, [r3, #224]
 385 002e 02F00102 		and	r2, r2, #1
 386 0032 0192     		str	r2, [sp, #4]
 101:Core/Src/tim.c ****     __HAL_RCC_GPIOE_CLK_ENABLE();
 387              		.loc 1 101 5 view .LVU100
 388 0034 019A     		ldr	r2, [sp, #4]
 389              	.LBE5:
 101:Core/Src/tim.c ****     __HAL_RCC_GPIOE_CLK_ENABLE();
 390              		.loc 1 101 5 view .LVU101
 102:Core/Src/tim.c ****     /**TIM1 GPIO Configuration
 391              		.loc 1 102 5 view .LVU102
 392              	.LBB6:
 102:Core/Src/tim.c ****     /**TIM1 GPIO Configuration
 393              		.loc 1 102 5 view .LVU103
 102:Core/Src/tim.c ****     /**TIM1 GPIO Configuration
 394              		.loc 1 102 5 view .LVU104
 395 0036 D3F8E020 		ldr	r2, [r3, #224]
 396 003a 42F01002 		orr	r2, r2, #16
 397 003e C3F8E020 		str	r2, [r3, #224]
 102:Core/Src/tim.c ****     /**TIM1 GPIO Configuration
 398              		.loc 1 102 5 view .LVU105
 399 0042 D3F8E030 		ldr	r3, [r3, #224]
 400 0046 03F01003 		and	r3, r3, #16
 401 004a 0293     		str	r3, [sp, #8]
 102:Core/Src/tim.c ****     /**TIM1 GPIO Configuration
 402              		.loc 1 102 5 view .LVU106
 403 004c 029B     		ldr	r3, [sp, #8]
 404              	.LBE6:
 102:Core/Src/tim.c ****     /**TIM1 GPIO Configuration
 405              		.loc 1 102 5 view .LVU107
 107:Core/Src/tim.c ****     GPIO_InitStruct.Mode = GPIO_MODE_AF_PP;
 406              		.loc 1 107 5 view .LVU108
 107:Core/Src/tim.c ****     GPIO_InitStruct.Mode = GPIO_MODE_AF_PP;
 407              		.loc 1 107 25 is_stmt 0 view .LVU109
 408 004e 8023     		movs	r3, #128
 409 0050 0393     		str	r3, [sp, #12]
 108:Core/Src/tim.c ****     GPIO_InitStruct.Pull = GPIO_NOPULL;
 410              		.loc 1 108 5 is_stmt 1 view .LVU110
 108:Core/Src/tim.c ****     GPIO_InitStruct.Pull = GPIO_NOPULL;
 411              		.loc 1 108 26 is_stmt 0 view .LVU111
 412 0052 0226     		movs	r6, #2
ARM GAS  /var/folders/g1/j12m_ky910s3_sv7d4yrsdn00000gn/T//ccd4TJBE.s 			page 11


 413 0054 0496     		str	r6, [sp, #16]
 109:Core/Src/tim.c ****     GPIO_InitStruct.Speed = GPIO_SPEED_FREQ_LOW;
 414              		.loc 1 109 5 is_stmt 1 view .LVU112
 110:Core/Src/tim.c ****     GPIO_InitStruct.Alternate = GPIO_AF1_TIM1;
 415              		.loc 1 110 5 view .LVU113
 111:Core/Src/tim.c ****     HAL_GPIO_Init(GPIOA, &GPIO_InitStruct);
 416              		.loc 1 111 5 view .LVU114
 111:Core/Src/tim.c ****     HAL_GPIO_Init(GPIOA, &GPIO_InitStruct);
 417              		.loc 1 111 31 is_stmt 0 view .LVU115
 418 0056 0125     		movs	r5, #1
 419 0058 0795     		str	r5, [sp, #28]
 112:Core/Src/tim.c **** 
 420              		.loc 1 112 5 is_stmt 1 view .LVU116
 421 005a 03AC     		add	r4, sp, #12
 422 005c 2146     		mov	r1, r4
 423 005e 0A48     		ldr	r0, .L24+8
 424              	.LVL13:
 112:Core/Src/tim.c **** 
 425              		.loc 1 112 5 is_stmt 0 view .LVU117
 426 0060 FFF7FEFF 		bl	HAL_GPIO_Init
 427              	.LVL14:
 114:Core/Src/tim.c ****     GPIO_InitStruct.Mode = GPIO_MODE_AF_PP;
 428              		.loc 1 114 5 is_stmt 1 view .LVU118
 114:Core/Src/tim.c ****     GPIO_InitStruct.Mode = GPIO_MODE_AF_PP;
 429              		.loc 1 114 25 is_stmt 0 view .LVU119
 430 0064 4FF40073 		mov	r3, #512
 431 0068 0393     		str	r3, [sp, #12]
 115:Core/Src/tim.c ****     GPIO_InitStruct.Pull = GPIO_NOPULL;
 432              		.loc 1 115 5 is_stmt 1 view .LVU120
 115:Core/Src/tim.c ****     GPIO_InitStruct.Pull = GPIO_NOPULL;
 433              		.loc 1 115 26 is_stmt 0 view .LVU121
 434 006a 0496     		str	r6, [sp, #16]
 116:Core/Src/tim.c ****     GPIO_InitStruct.Speed = GPIO_SPEED_FREQ_LOW;
 435              		.loc 1 116 5 is_stmt 1 view .LVU122
 116:Core/Src/tim.c ****     GPIO_InitStruct.Speed = GPIO_SPEED_FREQ_LOW;
 436              		.loc 1 116 26 is_stmt 0 view .LVU123
 437 006c 0023     		movs	r3, #0
 438 006e 0593     		str	r3, [sp, #20]
 117:Core/Src/tim.c ****     GPIO_InitStruct.Alternate = GPIO_AF1_TIM1;
 439              		.loc 1 117 5 is_stmt 1 view .LVU124
 117:Core/Src/tim.c ****     GPIO_InitStruct.Alternate = GPIO_AF1_TIM1;
 440              		.loc 1 117 27 is_stmt 0 view .LVU125
 441 0070 0693     		str	r3, [sp, #24]
 118:Core/Src/tim.c ****     HAL_GPIO_Init(GPIOE, &GPIO_InitStruct);
 442              		.loc 1 118 5 is_stmt 1 view .LVU126
 118:Core/Src/tim.c ****     HAL_GPIO_Init(GPIOE, &GPIO_InitStruct);
 443              		.loc 1 118 31 is_stmt 0 view .LVU127
 444 0072 0795     		str	r5, [sp, #28]
 119:Core/Src/tim.c **** 
 445              		.loc 1 119 5 is_stmt 1 view .LVU128
 446 0074 2146     		mov	r1, r4
 447 0076 0548     		ldr	r0, .L24+12
 448 0078 FFF7FEFF 		bl	HAL_GPIO_Init
 449              	.LVL15:
 450              		.loc 1 126 1 is_stmt 0 view .LVU129
 451 007c CCE7     		b	.L20
 452              	.L25:
ARM GAS  /var/folders/g1/j12m_ky910s3_sv7d4yrsdn00000gn/T//ccd4TJBE.s 			page 12


 453 007e 00BF     		.align	2
 454              	.L24:
 455 0080 00000140 		.word	1073807360
 456 0084 00440258 		.word	1476543488
 457 0088 00000258 		.word	1476526080
 458 008c 00100258 		.word	1476530176
 459              		.cfi_endproc
 460              	.LFE147:
 462              		.section	.text.HAL_TIM_Base_MspDeInit,"ax",%progbits
 463              		.align	1
 464              		.global	HAL_TIM_Base_MspDeInit
 465              		.syntax unified
 466              		.thumb
 467              		.thumb_func
 469              	HAL_TIM_Base_MspDeInit:
 470              	.LVL16:
 471              	.LFB148:
 127:Core/Src/tim.c **** 
 128:Core/Src/tim.c **** void HAL_TIM_Base_MspDeInit(TIM_HandleTypeDef* tim_baseHandle)
 129:Core/Src/tim.c **** {
 472              		.loc 1 129 1 is_stmt 1 view -0
 473              		.cfi_startproc
 474              		@ args = 0, pretend = 0, frame = 0
 475              		@ frame_needed = 0, uses_anonymous_args = 0
 476              		@ link register save eliminated.
 130:Core/Src/tim.c **** 
 131:Core/Src/tim.c ****   if(tim_baseHandle->Instance==TIM1)
 477              		.loc 1 131 3 view .LVU131
 478              		.loc 1 131 20 is_stmt 0 view .LVU132
 479 0000 0268     		ldr	r2, [r0]
 480              		.loc 1 131 5 view .LVU133
 481 0002 064B     		ldr	r3, .L29
 482 0004 9A42     		cmp	r2, r3
 483 0006 00D0     		beq	.L28
 484              	.L26:
 132:Core/Src/tim.c ****   {
 133:Core/Src/tim.c ****   /* USER CODE BEGIN TIM1_MspDeInit 0 */
 134:Core/Src/tim.c **** 
 135:Core/Src/tim.c ****   /* USER CODE END TIM1_MspDeInit 0 */
 136:Core/Src/tim.c ****     /* Peripheral clock disable */
 137:Core/Src/tim.c ****     __HAL_RCC_TIM1_CLK_DISABLE();
 138:Core/Src/tim.c ****   /* USER CODE BEGIN TIM1_MspDeInit 1 */
 139:Core/Src/tim.c **** 
 140:Core/Src/tim.c ****   /* USER CODE END TIM1_MspDeInit 1 */
 141:Core/Src/tim.c ****   }
 142:Core/Src/tim.c **** }
 485              		.loc 1 142 1 view .LVU134
 486 0008 7047     		bx	lr
 487              	.L28:
 137:Core/Src/tim.c ****   /* USER CODE BEGIN TIM1_MspDeInit 1 */
 488              		.loc 1 137 5 is_stmt 1 view .LVU135
 489 000a 054A     		ldr	r2, .L29+4
 490 000c D2F8F030 		ldr	r3, [r2, #240]
 491 0010 23F00103 		bic	r3, r3, #1
 492 0014 C2F8F030 		str	r3, [r2, #240]
 493              		.loc 1 142 1 is_stmt 0 view .LVU136
 494 0018 F6E7     		b	.L26
ARM GAS  /var/folders/g1/j12m_ky910s3_sv7d4yrsdn00000gn/T//ccd4TJBE.s 			page 13


 495              	.L30:
 496 001a 00BF     		.align	2
 497              	.L29:
 498 001c 00000140 		.word	1073807360
 499 0020 00440258 		.word	1476543488
 500              		.cfi_endproc
 501              	.LFE148:
 503              		.global	htim1
 504              		.section	.bss.htim1,"aw",%nobits
 505              		.align	2
 508              	htim1:
 509 0000 00000000 		.space	76
 509      00000000 
 509      00000000 
 509      00000000 
 509      00000000 
 510              		.text
 511              	.Letext0:
 512              		.file 2 "/Users/zhy/Tools/xpack-arm-none-eabi-gcc-14.2.1-1.1/arm-none-eabi/include/machine/_defaul
 513              		.file 3 "/Users/zhy/Tools/xpack-arm-none-eabi-gcc-14.2.1-1.1/arm-none-eabi/include/sys/_stdint.h"
 514              		.file 4 "Drivers/CMSIS/Device/ST/STM32H7xx/Include/stm32h743xx.h"
 515              		.file 5 "Drivers/STM32H7xx_HAL_Driver/Inc/stm32h7xx_hal_def.h"
 516              		.file 6 "Drivers/STM32H7xx_HAL_Driver/Inc/stm32h7xx_hal_gpio.h"
 517              		.file 7 "Drivers/STM32H7xx_HAL_Driver/Inc/stm32h7xx_hal_dma.h"
 518              		.file 8 "Drivers/STM32H7xx_HAL_Driver/Inc/stm32h7xx_hal_tim.h"
 519              		.file 9 "Drivers/STM32H7xx_HAL_Driver/Inc/stm32h7xx_hal_tim_ex.h"
 520              		.file 10 "Core/Inc/tim.h"
 521              		.file 11 "<built-in>"
ARM GAS  /var/folders/g1/j12m_ky910s3_sv7d4yrsdn00000gn/T//ccd4TJBE.s 			page 14

